target datalayout = "e-m:e-p270:32:32-p271:32:32-p272:64:64-i64:64-i128:128-f80:128-n8:16:32:64-S128"
target triple = "x86_64-unknown-linux-gnu"

%struct.default_t2uint = type { i8 }
%class.proof_checker = type <{ ptr, %class.ref_vector, %class.obj_mark, %class.ref_vector.31, %class.obj_map.36, i32, [4 x i8], %class.obj_ref, i8, [7 x i8], %"class.std::__cxx11::basic_string", i32, [4 x i8] }>
%class.ref_vector = type { %class.ref_vector_core }
%class.ref_vector_core = type { %class.ref_manager_wrapper, %class.ptr_vector.29 }
%class.ref_manager_wrapper = type { ptr }
%class.ptr_vector.29 = type { %class.vector.30 }
%class.vector.30 = type { ptr }
%class.obj_mark = type { %struct.default_t2uint, %class.bit_vector }
%class.bit_vector = type { i32, i32, ptr }
%class.ref_vector.31 = type { %class.ref_vector_core.32 }
%class.ref_vector_core.32 = type { %class.ref_manager_wrapper.33, %class.ptr_vector.34 }
%class.ref_manager_wrapper.33 = type { ptr }
%class.ptr_vector.34 = type { %class.vector.35 }
%class.vector.35 = type { ptr }
%class.obj_map.36 = type { %class.core_hashtable.37 }
%class.core_hashtable.37 = type <{ ptr, i32, i32, i32, [4 x i8] }>
%class.obj_ref = type { ptr, ptr }
%"class.std::__cxx11::basic_string" = type { %"struct.std::__cxx11::basic_string<char>::_Alloc_hider", i64, %union.anon }
%"struct.std::__cxx11::basic_string<char>::_Alloc_hider" = type { ptr }
%union.anon = type { i64, [8 x i8] }
%class.ast = type { i32, i24, i32, i32 }

; Function Attrs: mustprogress nounwind uwtable
define linkonce_odr hidden void @_ZN3ast7inc_refEv(ptr noundef nonnull align 4 dereferenceable(16) %this) #4 comdat align 2 {
entry:
  %this.addr = alloca ptr, align 8
  store ptr %this, ptr %this.addr, align 8
  %this1 = load ptr, ptr %this.addr, align 8
  %m_ref_count = getelementptr inbounds %class.ast, ptr %this1, i32 0, i32 2
  %0 = load i32, ptr %m_ref_count, align 4
  %inc = add i32 %0, 1
  store i32 %inc, ptr %m_ref_count, align 4
  ret void
}

; Function Attrs: mustprogress uwtable
define linkonce_odr hidden void @_ZN11ast_manager7inc_refEP3ast(ptr noundef nonnull align 8 dereferenceable(976) %this, ptr noundef %n) #5 comdat align 2 {
entry:
  %this.addr = alloca ptr, align 8
  %n.addr = alloca ptr, align 8
  store ptr %this, ptr %this.addr, align 8
  store ptr %n, ptr %n.addr, align 8
  %0 = load ptr, ptr %n.addr, align 8
  %tobool = icmp ne ptr %0, null
  br i1 %tobool, label %if.then, label %if.end

if.then:                                          ; preds = %entry
  %1 = load ptr, ptr %n.addr, align 8
  call void @_ZN3ast7inc_refEv(ptr noundef nonnull align 4 dereferenceable(16) %1)
  br label %if.end

if.end:                                           ; preds = %if.then, %entry
  ret void
}

; Function Attrs: mustprogress nounwind uwtable
define linkonce_odr hidden noundef nonnull align 4 dereferenceable(4) ptr @_ZN10bit_vector12get_bit_wordEj(ptr noundef nonnull align 8 dereferenceable(16) %this, i32 noundef %bit_idx) #4 comdat align 2 {
entry:
  %this.addr = alloca ptr, align 8
  %bit_idx.addr = alloca i32, align 4
  store ptr %this, ptr %this.addr, align 8
  store i32 %bit_idx, ptr %bit_idx.addr, align 4
  %this1 = load ptr, ptr %this.addr, align 8
  %m_data = getelementptr inbounds %class.bit_vector, ptr %this1, i32 0, i32 2
  %0 = load ptr, ptr %m_data, align 8
  %1 = load i32, ptr %bit_idx.addr, align 4
  %div = udiv i32 %1, 32
  %idxprom = zext i32 %div to i64
  %arrayidx = getelementptr inbounds i32, ptr %0, i64 %idxprom
  ret ptr %arrayidx
}

; Function Attrs: mustprogress nounwind uwtable
define linkonce_odr hidden noundef i32 @_ZN10bit_vector12get_pos_maskEj(i32 noundef %bit_idx) #4 comdat align 2 {
entry:
  %bit_idx.addr = alloca i32, align 4
  store i32 %bit_idx, ptr %bit_idx.addr, align 4
  %0 = load i32, ptr %bit_idx.addr, align 4
  %rem = urem i32 %0, 32
  %shl = shl i32 1, %rem
  ret i32 %shl
}

; Function Attrs: mustprogress nounwind uwtable
define linkonce_odr hidden noundef i32 @_ZNK10bit_vector12get_bit_wordEj(ptr noundef nonnull align 8 dereferenceable(16) %this, i32 noundef %bit_idx) #4 comdat align 2 {
entry:
  %this.addr = alloca ptr, align 8
  %bit_idx.addr = alloca i32, align 4
  store ptr %this, ptr %this.addr, align 8
  store i32 %bit_idx, ptr %bit_idx.addr, align 4
  %this1 = load ptr, ptr %this.addr, align 8
  %m_data = getelementptr inbounds %class.bit_vector, ptr %this1, i32 0, i32 2
  %0 = load ptr, ptr %m_data, align 8
  %1 = load i32, ptr %bit_idx.addr, align 4
  %div = udiv i32 %1, 32
  %idxprom = zext i32 %div to i64
  %arrayidx = getelementptr inbounds i32, ptr %0, i64 %idxprom
  %2 = load i32, ptr %arrayidx, align 4
  ret i32 %2
}

; Function Attrs: mustprogress nounwind uwtable
define linkonce_odr hidden noundef i32 @_ZNK3ast6get_idEv(ptr noundef nonnull align 4 dereferenceable(16) %this) #4 comdat align 2 {
entry:
  %this.addr = alloca ptr, align 8
  store ptr %this, ptr %this.addr, align 8
  %this1 = load ptr, ptr %this.addr, align 8
  %m_id = getelementptr inbounds %class.ast, ptr %this1, i32 0, i32 0
  %0 = load i32, ptr %m_id, align 4
  ret i32 %0
}

; Function Attrs: mustprogress uwtable
define linkonce_odr hidden void @_ZN19ref_manager_wrapperI3app11ast_managerE7inc_refEPS0_(ptr noundef nonnull align 8 dereferenceable(8) %this, ptr noundef %n) #5 comdat align 2 {
entry:
  %this.addr = alloca ptr, align 8
  %n.addr = alloca ptr, align 8
  store ptr %this, ptr %this.addr, align 8
  store ptr %n, ptr %n.addr, align 8
  %this1 = load ptr, ptr %this.addr, align 8
  %m_manager = getelementptr inbounds %class.ref_manager_wrapper, ptr %this1, i32 0, i32 0
  %0 = load ptr, ptr %m_manager, align 8
  %1 = load ptr, ptr %n.addr, align 8
  call void @_ZN11ast_manager7inc_refEP3ast(ptr noundef nonnull align 8 dereferenceable(976) %0, ptr noundef %1)
  ret void
}

; Function Attrs: mustprogress uwtable
define linkonce_odr hidden void @_ZN10bit_vector3setEjb(ptr noundef nonnull align 8 dereferenceable(16) %this, i32 noundef %bit_idx, i1 noundef zeroext %val) #5 comdat align 2 {
entry:
  %this.addr = alloca ptr, align 8
  %bit_idx.addr = alloca i32, align 4
  %val.addr = alloca i8, align 1
  %_val = alloca i32, align 4
  store ptr %this, ptr %this.addr, align 8
  store i32 %bit_idx, ptr %bit_idx.addr, align 4
  %frombool = zext i1 %val to i8
  store i8 %frombool, ptr %val.addr, align 1
  %this1 = load ptr, ptr %this.addr, align 8
  %0 = load i8, ptr %val.addr, align 1
  %tobool = trunc i8 %0 to i1
  %conv = zext i1 %tobool to i32
  store i32 %conv, ptr %_val, align 4
  %1 = load i32, ptr %_val, align 4
  %sub = sub nsw i32 0, %1
  %2 = load i32, ptr %bit_idx.addr, align 4
  %call = call noundef nonnull align 4 dereferenceable(4) ptr @_ZN10bit_vector12get_bit_wordEj(ptr noundef nonnull align 8 dereferenceable(16) %this1, i32 noundef %2)
  %3 = load i32, ptr %call, align 4
  %xor = xor i32 %sub, %3
  %4 = load i32, ptr %bit_idx.addr, align 4
  %call2 = call noundef i32 @_ZN10bit_vector12get_pos_maskEj(i32 noundef %4)
  %and = and i32 %xor, %call2
  %5 = load i32, ptr %bit_idx.addr, align 4
  %call3 = call noundef nonnull align 4 dereferenceable(4) ptr @_ZN10bit_vector12get_bit_wordEj(ptr noundef nonnull align 8 dereferenceable(16) %this1, i32 noundef %5)
  %6 = load i32, ptr %call3, align 4
  %xor4 = xor i32 %6, %and
  store i32 %xor4, ptr %call3, align 4
  ret void
}

; Function Attrs: mustprogress uwtable
define linkonce_odr hidden noundef zeroext i1 @_ZNK10bit_vector3getEj(ptr noundef nonnull align 8 dereferenceable(16) %this, i32 noundef %bit_idx) #5 comdat align 2 {
entry:
  %this.addr = alloca ptr, align 8
  %bit_idx.addr = alloca i32, align 4
  %r = alloca i8, align 1
  store ptr %this, ptr %this.addr, align 8
  store i32 %bit_idx, ptr %bit_idx.addr, align 4
  %this1 = load ptr, ptr %this.addr, align 8
  %0 = load i32, ptr %bit_idx.addr, align 4
  %call = call noundef i32 @_ZNK10bit_vector12get_bit_wordEj(ptr noundef nonnull align 8 dereferenceable(16) %this1, i32 noundef %0)
  %1 = load i32, ptr %bit_idx.addr, align 4
  %call2 = call noundef i32 @_ZN10bit_vector12get_pos_maskEj(i32 noundef %1)
  %and = and i32 %call, %call2
  %cmp = icmp ne i32 %and, 0
  %frombool = zext i1 %cmp to i8
  store i8 %frombool, ptr %r, align 1
  %2 = load i8, ptr %r, align 1
  %tobool = trunc i8 %2 to i1
  ret i1 %tobool
}

; Function Attrs: mustprogress nounwind uwtable
define linkonce_odr hidden noundef i32 @_ZNK10bit_vector4sizeEv(ptr noundef nonnull align 8 dereferenceable(16) %this) #4 comdat align 2 {
entry:
  %this.addr = alloca ptr, align 8
  store ptr %this, ptr %this.addr, align 8
  %this1 = load ptr, ptr %this.addr, align 8
  %m_num_bits = getelementptr inbounds %class.bit_vector, ptr %this1, i32 0, i32 0
  %0 = load i32, ptr %m_num_bits, align 8
  ret i32 %0
}

; Function Attrs: mustprogress nounwind uwtable
define linkonce_odr hidden noundef i32 @_ZNK14default_t2uintI4exprEclERKS0_(ptr noundef nonnull align 1 dereferenceable(1) %this, ptr noundef nonnull align 4 dereferenceable(16) %obj) #4 comdat align 2 {
entry:
  %this.addr = alloca ptr, align 8
  %obj.addr = alloca ptr, align 8
  store ptr %this, ptr %this.addr, align 8
  store ptr %obj, ptr %obj.addr, align 8
  %0 = load ptr, ptr %obj.addr, align 8
  %call = call noundef i32 @_ZNK3ast6get_idEv(ptr noundef nonnull align 4 dereferenceable(16) %0)
  ret i32 %call
}

; Function Attrs: mustprogress uwtable
define linkonce_odr hidden noundef nonnull align 8 dereferenceable(8) ptr @_ZN6vectorIP3appLb0EjE9push_backERKS1_(ptr noundef nonnull align 8 dereferenceable(8) %this, ptr noundef nonnull align 8 dereferenceable(8) %elem) #5 comdat align 2 {
entry:
  %this.addr = alloca ptr, align 8
  %elem.addr = alloca ptr, align 8
  store ptr %this, ptr %this.addr, align 8
  store ptr %elem, ptr %elem.addr, align 8
  %this1 = load ptr, ptr %this.addr, align 8
  %m_data = getelementptr inbounds %class.vector.30, ptr %this1, i32 0, i32 0
  %0 = load ptr, ptr %m_data, align 8
  %cmp = icmp eq ptr %0, null
  br i1 %cmp, label %if.then, label %lor.lhs.false

lor.lhs.false:                                    ; preds = %entry
  %m_data2 = getelementptr inbounds %class.vector.30, ptr %this1, i32 0, i32 0
  %1 = load ptr, ptr %m_data2, align 8
  %arrayidx = getelementptr inbounds i32, ptr %1, i64 -1
  %2 = load i32, ptr %arrayidx, align 4
  %m_data3 = getelementptr inbounds %class.vector.30, ptr %this1, i32 0, i32 0
  %3 = load ptr, ptr %m_data3, align 8
  %arrayidx4 = getelementptr inbounds i32, ptr %3, i64 -2
  %4 = load i32, ptr %arrayidx4, align 4
  %cmp5 = icmp eq i32 %2, %4
  br i1 %cmp5, label %if.then, label %if.end

if.then:                                          ; preds = %lor.lhs.false, %entry
  call void @_ZN6vectorIP3appLb0EjE13expand_vectorEv(ptr noundef nonnull align 8 dereferenceable(8) %this1)
  br label %if.end

if.end:                                           ; preds = %if.then, %lor.lhs.false
  %m_data6 = getelementptr inbounds %class.vector.30, ptr %this1, i32 0, i32 0
  %5 = load ptr, ptr %m_data6, align 8
  %m_data7 = getelementptr inbounds %class.vector.30, ptr %this1, i32 0, i32 0
  %6 = load ptr, ptr %m_data7, align 8
  %arrayidx8 = getelementptr inbounds i32, ptr %6, i64 -1
  %7 = load i32, ptr %arrayidx8, align 4
  %idx.ext = zext i32 %7 to i64
  %add.ptr = getelementptr inbounds ptr, ptr %5, i64 %idx.ext
  %8 = load ptr, ptr %elem.addr, align 8
  %9 = load ptr, ptr %8, align 8
  store ptr %9, ptr %add.ptr, align 8
  %m_data9 = getelementptr inbounds %class.vector.30, ptr %this1, i32 0, i32 0
  %10 = load ptr, ptr %m_data9, align 8
  %arrayidx10 = getelementptr inbounds i32, ptr %10, i64 -1
  %11 = load i32, ptr %arrayidx10, align 4
  %inc = add i32 %11, 1
  store i32 %inc, ptr %arrayidx10, align 4
  ret ptr %this1
}

; Function Attrs: mustprogress uwtable
define linkonce_odr hidden void @_ZN15ref_vector_coreI3app19ref_manager_wrapperIS0_11ast_managerEE7inc_refEPS0_(ptr noundef nonnull align 8 dereferenceable(16) %this, ptr noundef %o) #5 comdat align 2 {
entry:
  %this.addr = alloca ptr, align 8
  %o.addr = alloca ptr, align 8
  store ptr %this, ptr %this.addr, align 8
  store ptr %o, ptr %o.addr, align 8
  %this1 = load ptr, ptr %this.addr, align 8
  %0 = load ptr, ptr %o.addr, align 8
  call void @_ZN19ref_manager_wrapperI3app11ast_managerE7inc_refEPS0_(ptr noundef nonnull align 8 dereferenceable(8) %this1, ptr noundef %0)
  ret void
}

; Function Attrs: mustprogress uwtable
define linkonce_odr hidden void @_ZN8obj_markI4expr10bit_vector14default_t2uintIS0_EE4markERKS0_b(ptr noundef nonnull align 8 dereferenceable(24) %this, ptr noundef nonnull align 4 dereferenceable(16) %obj, i1 noundef zeroext %flag) #5 comdat align 2 {
entry:
  %this.addr = alloca ptr, align 8
  %obj.addr = alloca ptr, align 8
  %flag.addr = alloca i8, align 1
  %id = alloca i32, align 4
  store ptr %this, ptr %this.addr, align 8
  store ptr %obj, ptr %obj.addr, align 8
  %frombool = zext i1 %flag to i8
  store i8 %frombool, ptr %flag.addr, align 1
  %this1 = load ptr, ptr %this.addr, align 8
  %m_proc = getelementptr inbounds %class.obj_mark, ptr %this1, i32 0, i32 0
  %0 = load ptr, ptr %obj.addr, align 8
  %call = call noundef i32 @_ZNK14default_t2uintI4exprEclERKS0_(ptr noundef nonnull align 1 dereferenceable(1) %m_proc, ptr noundef nonnull align 4 dereferenceable(16) %0)
  store i32 %call, ptr %id, align 4
  %1 = load i32, ptr %id, align 4
  %m_marks = getelementptr inbounds %class.obj_mark, ptr %this1, i32 0, i32 1
  %call2 = call noundef i32 @_ZNK10bit_vector4sizeEv(ptr noundef nonnull align 8 dereferenceable(16) %m_marks)
  %cmp = icmp uge i32 %1, %call2
  br i1 %cmp, label %if.then, label %if.end

if.then:                                          ; preds = %entry
  %m_marks3 = getelementptr inbounds %class.obj_mark, ptr %this1, i32 0, i32 1
  %2 = load i32, ptr %id, align 4
  %add = add i32 %2, 1
  call void @_ZN10bit_vector6resizeEjb(ptr noundef nonnull align 8 dereferenceable(16) %m_marks3, i32 noundef %add, i1 noundef zeroext false)
  br label %if.end

if.end:                                           ; preds = %if.then, %entry
  %m_marks4 = getelementptr inbounds %class.obj_mark, ptr %this1, i32 0, i32 1
  %3 = load i32, ptr %id, align 4
  %4 = load i8, ptr %flag.addr, align 1
  %tobool = trunc i8 %4 to i1
  call void @_ZN10bit_vector3setEjb(ptr noundef nonnull align 8 dereferenceable(16) %m_marks4, i32 noundef %3, i1 noundef zeroext %tobool)
  ret void
}

; Function Attrs: mustprogress uwtable
define linkonce_odr hidden noundef zeroext i1 @_ZNK8obj_markI4expr10bit_vector14default_t2uintIS0_EE9is_markedERKS0_(ptr noundef nonnull align 8 dereferenceable(24) %this, ptr noundef nonnull align 4 dereferenceable(16) %obj) #5 comdat align 2 {
entry:
  %this.addr = alloca ptr, align 8
  %obj.addr = alloca ptr, align 8
  %id = alloca i32, align 4
  store ptr %this, ptr %this.addr, align 8
  store ptr %obj, ptr %obj.addr, align 8
  %this1 = load ptr, ptr %this.addr, align 8
  %m_proc = getelementptr inbounds %class.obj_mark, ptr %this1, i32 0, i32 0
  %0 = load ptr, ptr %obj.addr, align 8
  %call = call noundef i32 @_ZNK14default_t2uintI4exprEclERKS0_(ptr noundef nonnull align 1 dereferenceable(1) %m_proc, ptr noundef nonnull align 4 dereferenceable(16) %0)
  store i32 %call, ptr %id, align 4
  %1 = load i32, ptr %id, align 4
  %m_marks = getelementptr inbounds %class.obj_mark, ptr %this1, i32 0, i32 1
  %call2 = call noundef i32 @_ZNK10bit_vector4sizeEv(ptr noundef nonnull align 8 dereferenceable(16) %m_marks)
  %cmp = icmp ult i32 %1, %call2
  br i1 %cmp, label %land.rhs, label %land.end

land.rhs:                                         ; preds = %entry
  %m_marks3 = getelementptr inbounds %class.obj_mark, ptr %this1, i32 0, i32 1
  %2 = load i32, ptr %id, align 4
  %call4 = call noundef zeroext i1 @_ZNK10bit_vector3getEj(ptr noundef nonnull align 8 dereferenceable(16) %m_marks3, i32 noundef %2)
  br label %land.end

land.end:                                         ; preds = %land.rhs, %entry
  %3 = phi i1 [ false, %entry ], [ %call4, %land.rhs ]
  ret i1 %3
}

; Function Attrs: mustprogress uwtable
define linkonce_odr hidden noundef nonnull align 8 dereferenceable(16) ptr @_ZN15ref_vector_coreI3app19ref_manager_wrapperIS0_11ast_managerEE9push_backEPS0_(ptr noundef nonnull align 8 dereferenceable(16) %this, ptr noundef %n) #5 comdat align 2 {
entry:
  %this.addr = alloca ptr, align 8
  %n.addr = alloca ptr, align 8
  store ptr %this, ptr %this.addr, align 8
  store ptr %n, ptr %n.addr, align 8
  %this1 = load ptr, ptr %this.addr, align 8
  %0 = load ptr, ptr %n.addr, align 8
  call void @_ZN15ref_vector_coreI3app19ref_manager_wrapperIS0_11ast_managerEE7inc_refEPS0_(ptr noundef nonnull align 8 dereferenceable(16) %this1, ptr noundef %0)
  %m_nodes = getelementptr inbounds %class.ref_vector_core, ptr %this1, i32 0, i32 1
  %call = call noundef nonnull align 8 dereferenceable(8) ptr @_ZN6vectorIP3appLb0EjE9push_backERKS1_(ptr noundef nonnull align 8 dereferenceable(8) %m_nodes, ptr noundef nonnull align 8 dereferenceable(8) %n.addr)
  ret ptr %this1
}

; Function Attrs: mustprogress uwtable
define linkonce_odr hidden void @_ZN8obj_markI4expr10bit_vector14default_t2uintIS0_EE4markEPKS0_b(ptr noundef nonnull align 8 dereferenceable(24) %this, ptr noundef %obj, i1 noundef zeroext %flag) #5 comdat align 2 {
entry:
  %this.addr = alloca ptr, align 8
  %obj.addr = alloca ptr, align 8
  %flag.addr = alloca i8, align 1
  store ptr %this, ptr %this.addr, align 8
  store ptr %obj, ptr %obj.addr, align 8
  %frombool = zext i1 %flag to i8
  store i8 %frombool, ptr %flag.addr, align 1
  %this1 = load ptr, ptr %this.addr, align 8
  %0 = load ptr, ptr %obj.addr, align 8
  %1 = load i8, ptr %flag.addr, align 1
  %tobool = trunc i8 %1 to i1
  call void @_ZN8obj_markI4expr10bit_vector14default_t2uintIS0_EE4markERKS0_b(ptr noundef nonnull align 8 dereferenceable(24) %this1, ptr noundef nonnull align 4 dereferenceable(16) %0, i1 noundef zeroext %tobool)
  ret void
}

; Function Attrs: mustprogress uwtable
define linkonce_odr hidden noundef zeroext i1 @_ZNK8obj_markI4expr10bit_vector14default_t2uintIS0_EE9is_markedEPS0_(ptr noundef nonnull align 8 dereferenceable(24) %this, ptr noundef %obj) #5 comdat align 2 {
entry:
  %this.addr = alloca ptr, align 8
  %obj.addr = alloca ptr, align 8
  store ptr %this, ptr %this.addr, align 8
  store ptr %obj, ptr %obj.addr, align 8
  %this1 = load ptr, ptr %this.addr, align 8
  %0 = load ptr, ptr %obj.addr, align 8
  %call = call noundef zeroext i1 @_ZNK8obj_markI4expr10bit_vector14default_t2uintIS0_EE9is_markedERKS0_(ptr noundef nonnull align 8 dereferenceable(24) %this1, ptr noundef nonnull align 4 dereferenceable(16) %0)
  ret i1 %call
}

; Function Attrs: mustprogress uwtable
define hidden void @_ZN13proof_checker11add_premiseEP3app(ptr noundef nonnull align 8 dereferenceable(156) %this, ptr noundef %p) #5 align 2 {
entry:
  %this.addr = alloca ptr, align 8
  %p.addr = alloca ptr, align 8
  store ptr %this, ptr %this.addr, align 8
  store ptr %p, ptr %p.addr, align 8
  %this1 = load ptr, ptr %this.addr, align 8
  %m_marked = getelementptr inbounds %class.proof_checker, ptr %this1, i32 0, i32 2
  %0 = load ptr, ptr %p.addr, align 8
  %call = call noundef zeroext i1 @_ZNK8obj_markI4expr10bit_vector14default_t2uintIS0_EE9is_markedEPS0_(ptr noundef nonnull align 8 dereferenceable(24) %m_marked, ptr noundef %0)
  br i1 %call, label %if.end, label %if.then

if.then:                                          ; preds = %entry
  %m_marked2 = getelementptr inbounds %class.proof_checker, ptr %this1, i32 0, i32 2
  %1 = load ptr, ptr %p.addr, align 8
  call void @_ZN8obj_markI4expr10bit_vector14default_t2uintIS0_EE4markEPKS0_b(ptr noundef nonnull align 8 dereferenceable(24) %m_marked2, ptr noundef %1, i1 noundef zeroext true)
  %m_todo = getelementptr inbounds %class.proof_checker, ptr %this1, i32 0, i32 1
  %2 = load ptr, ptr %p.addr, align 8
  %call3 = call noundef nonnull align 8 dereferenceable(16) ptr @_ZN15ref_vector_coreI3app19ref_manager_wrapperIS0_11ast_managerEE9push_backEPS0_(ptr noundef nonnull align 8 dereferenceable(16) %m_todo, ptr noundef %2)
  br label %if.end

if.end:                                           ; preds = %if.then, %entry
  ret void
}