; Function Attrs: mustprogress uwtable
define hidden void @_ZN13proof_checker11add_premiseEP3app(ptr noundef nonnull align 8 dereferenceable(156) %this, ptr noundef %p) local_unnamed_addr #4 align 2 {
entry:
  %0 = load i32, ptr %p, align 4
  %m_marks.i.i = getelementptr inbounds i8, ptr %this, i64 32
  %1 = load i32, ptr %m_marks.i.i, align 8
  %cmp.i.i = icmp ult i32 %0, %1
  %rem.i.i.i.i = and i32 %0, 31
  %shl.i.i.i.i = shl nuw i32 1, %rem.i.i.i.i
  br i1 %cmp.i.i, label %_ZNK8obj_markI4expr10bit_vector14default_t2uintIS0_EE9is_markedEPS0_.exit, label %if.then.i.i

_ZNK8obj_markI4expr10bit_vector14default_t2uintIS0_EE9is_markedEPS0_.exit: ; preds = %entry
  %m_data.i.i.i.i = getelementptr inbounds i8, ptr %this, i64 40
  %2 = load ptr, ptr %m_data.i.i.i.i, align 8
  %div1.i.i.i.i = lshr i32 %0, 5
  %idxprom.i.i.i.i = zext nneg i32 %div1.i.i.i.i to i64
  %arrayidx.i.i.i.i = getelementptr inbounds i32, ptr %2, i64 %idxprom.i.i.i.i
  %3 = load i32, ptr %arrayidx.i.i.i.i, align 4
  %and.i.i.i = and i32 %3, %shl.i.i.i.i
  %cmp.i.i.i.not = icmp eq i32 %and.i.i.i, 0
  br i1 %cmp.i.i.i.not, label %_ZN15ref_vector_coreI3app19ref_manager_wrapperIS0_11ast_managerEE7inc_refEPS0_.exit.i, label %if.end

if.then.i.i:                                      ; preds = %entry
  %add.i.i = add i32 %0, 1
  tail call void @_ZN10bit_vector6resizeEjb(ptr noundef nonnull align 8 dereferenceable(16) %m_marks.i.i, i32 noundef %add.i.i, i1 noundef zeroext false)
  %m_data.i.i.i.i4.phi.trans.insert = getelementptr inbounds i8, ptr %this, i64 40
  %.pre = load ptr, ptr %m_data.i.i.i.i4.phi.trans.insert, align 8
  %.pre13 = lshr i32 %0, 5
  %.pre14 = zext nneg i32 %.pre13 to i64
  br label %_ZN15ref_vector_coreI3app19ref_manager_wrapperIS0_11ast_managerEE7inc_refEPS0_.exit.i

_ZN15ref_vector_coreI3app19ref_manager_wrapperIS0_11ast_managerEE7inc_refEPS0_.exit.i: ; preds = %_ZNK8obj_markI4expr10bit_vector14default_t2uintIS0_EE9is_markedEPS0_.exit, %if.then.i.i
  %idxprom.i.i.i.i6.pre-phi = phi i64 [ %idxprom.i.i.i.i, %_ZNK8obj_markI4expr10bit_vector14default_t2uintIS0_EE9is_markedEPS0_.exit ], [ %.pre14, %if.then.i.i ]
  %4 = phi ptr [ %2, %_ZNK8obj_markI4expr10bit_vector14default_t2uintIS0_EE9is_markedEPS0_.exit ], [ %.pre, %if.then.i.i ]
  %arrayidx.i.i.i.i7 = getelementptr inbounds i32, ptr %4, i64 %idxprom.i.i.i.i6.pre-phi
  %5 = load i32, ptr %arrayidx.i.i.i.i7, align 4
  %xor4.i.i.i = or i32 %5, %shl.i.i.i.i
  store i32 %xor4.i.i.i, ptr %arrayidx.i.i.i.i7, align 4
  %m_ref_count.i.i.i.i.i = getelementptr inbounds i8, ptr %p, i64 8
  %6 = load i32, ptr %m_ref_count.i.i.i.i.i, align 4
  %inc.i.i.i.i.i = add i32 %6, 1
  store i32 %inc.i.i.i.i.i, ptr %m_ref_count.i.i.i.i.i, align 4
  %m_nodes.i = getelementptr inbounds i8, ptr %this, i64 16
  %7 = load ptr, ptr %m_nodes.i, align 8
  %cmp.i.i11 = icmp eq ptr %7, null
  br i1 %cmp.i.i11, label %if.then.i.i12, label %lor.lhs.false.i.i

lor.lhs.false.i.i:                                ; preds = %_ZN15ref_vector_coreI3app19ref_manager_wrapperIS0_11ast_managerEE7inc_refEPS0_.exit.i
  %arrayidx.i.i = getelementptr inbounds i8, ptr %7, i64 -4
  %8 = load i32, ptr %arrayidx.i.i, align 4
  %arrayidx4.i.i = getelementptr inbounds i8, ptr %7, i64 -8
  %9 = load i32, ptr %arrayidx4.i.i, align 4
  %cmp5.i.i = icmp eq i32 %8, %9
  br i1 %cmp5.i.i, label %if.then.i.i12, label %_ZN15ref_vector_coreI3app19ref_manager_wrapperIS0_11ast_managerEE9push_backEPS0_.exit

if.then.i.i12:                                    ; preds = %lor.lhs.false.i.i, %_ZN15ref_vector_coreI3app19ref_manager_wrapperIS0_11ast_managerEE7inc_refEPS0_.exit.i
  tail call void @_ZN6vectorIP3appLb0EjE13expand_vectorEv(ptr noundef nonnull align 8 dereferenceable(8) %m_nodes.i)
  %.pre.i.i = load ptr, ptr %m_nodes.i, align 8
  %arrayidx8.phi.trans.insert.i.i = getelementptr inbounds i8, ptr %.pre.i.i, i64 -4
  %.pre1.i.i = load i32, ptr %arrayidx8.phi.trans.insert.i.i, align 4
  br label %_ZN15ref_vector_coreI3app19ref_manager_wrapperIS0_11ast_managerEE9push_backEPS0_.exit

_ZN15ref_vector_coreI3app19ref_manager_wrapperIS0_11ast_managerEE9push_backEPS0_.exit: ; preds = %lor.lhs.false.i.i, %if.then.i.i12
  %10 = phi i32 [ %.pre1.i.i, %if.then.i.i12 ], [ %8, %lor.lhs.false.i.i ]
  %11 = phi ptr [ %.pre.i.i, %if.then.i.i12 ], [ %7, %lor.lhs.false.i.i ]
  %idx.ext.i.i = zext i32 %10 to i64
  %add.ptr.i.i = getelementptr inbounds ptr, ptr %11, i64 %idx.ext.i.i
  store ptr %p, ptr %add.ptr.i.i, align 8
  %12 = load ptr, ptr %m_nodes.i, align 8
  %arrayidx10.i.i = getelementptr inbounds i8, ptr %12, i64 -4
  %13 = load i32, ptr %arrayidx10.i.i, align 4
  %inc.i.i = add i32 %13, 1
  store i32 %inc.i.i, ptr %arrayidx10.i.i, align 4
  br label %if.end

if.end:                                           ; preds = %_ZN15ref_vector_coreI3app19ref_manager_wrapperIS0_11ast_managerEE9push_backEPS0_.exit, %_ZNK8obj_markI4expr10bit_vector14default_t2uintIS0_EE9is_markedEPS0_.exit
  ret void
}